target datalayout = "e-m:e-p270:32:32-p271:32:32-p272:64:64-i64:64-i128:128-f80:128-n8:16:32:64-S128"
target triple = "x86_64-pc-linux-gnu"

%struct.missing_cache_key = type { i32, i64 }

; Function Attrs: inlinehint nounwind uwtable
define internal ptr @DatumGetPointer(i64 noundef %0) #2 {
  %2 = alloca i64, align 8
  store i64 %0, ptr %2, align 8
  %3 = load i64, ptr %2, align 8
  %4 = inttoptr i64 %3 to ptr
  ret ptr %4
}

; Function Attrs: nounwind uwtable
define internal i32 @missing_match(ptr noundef %0, ptr noundef %1, i64 noundef %2) #0 {
  %4 = alloca i32, align 4
  %5 = alloca ptr, align 8
  %6 = alloca ptr, align 8
  %7 = alloca i64, align 8
  %8 = alloca ptr, align 8
  %9 = alloca ptr, align 8
  %10 = alloca i32, align 4
  store ptr %0, ptr %5, align 8
  store ptr %1, ptr %6, align 8
  store i64 %2, ptr %7, align 8
  call void @llvm.lifetime.start.p0(i64 8, ptr %8) #8
  %11 = load ptr, ptr %5, align 8
  store ptr %11, ptr %8, align 8
  call void @llvm.lifetime.start.p0(i64 8, ptr %9) #8
  %12 = load ptr, ptr %6, align 8
  store ptr %12, ptr %9, align 8
  %13 = load ptr, ptr %8, align 8
  %14 = getelementptr inbounds nuw %struct.missing_cache_key, ptr %13, i32 0, i32 0
  %15 = load i32, ptr %14, align 8
  %16 = load ptr, ptr %9, align 8
  %17 = getelementptr inbounds nuw %struct.missing_cache_key, ptr %16, i32 0, i32 0
  %18 = load i32, ptr %17, align 8
  %19 = icmp ne i32 %15, %18
  br i1 %19, label %20, label %29

20:                                               ; preds = %3
  %21 = load ptr, ptr %8, align 8
  %22 = getelementptr inbounds nuw %struct.missing_cache_key, ptr %21, i32 0, i32 0
  %23 = load i32, ptr %22, align 8
  %24 = load ptr, ptr %9, align 8
  %25 = getelementptr inbounds nuw %struct.missing_cache_key, ptr %24, i32 0, i32 0
  %26 = load i32, ptr %25, align 8
  %27 = icmp sgt i32 %23, %26
  %28 = select i1 %27, i32 1, i32 -1
  store i32 %28, ptr %4, align 4
  store i32 1, ptr %10, align 4
  br label %43

29:                                               ; preds = %3
  %30 = load ptr, ptr %8, align 8
  %31 = getelementptr inbounds nuw %struct.missing_cache_key, ptr %30, i32 0, i32 1
  %32 = load i64, ptr %31, align 8
  %33 = call ptr @DatumGetPointer(i64 noundef %32)
  %34 = load ptr, ptr %9, align 8
  %35 = getelementptr inbounds nuw %struct.missing_cache_key, ptr %34, i32 0, i32 1
  %36 = load i64, ptr %35, align 8
  %37 = call ptr @DatumGetPointer(i64 noundef %36)
  %38 = load ptr, ptr %8, align 8
  %39 = getelementptr inbounds nuw %struct.missing_cache_key, ptr %38, i32 0, i32 0
  %40 = load i32, ptr %39, align 8
  %41 = sext i32 %40 to i64
  %42 = call i32 @memcmp(ptr noundef %33, ptr noundef %37, i64 noundef %41) #9
  store i32 %42, ptr %4, align 4
  store i32 1, ptr %10, align 4
  br label %43

43:                                               ; preds = %29, %20
  call void @llvm.lifetime.end.p0(i64 8, ptr %9) #8
  call void @llvm.lifetime.end.p0(i64 8, ptr %8) #8
  %44 = load i32, ptr %4, align 4
  ret i32 %44
}