; Function Attrs: mustprogress nofree nounwind willreturn memory(read, inaccessiblemem: none) uwtable
define internal i32 @missing_match(ptr noundef readonly captures(none) %0, ptr noundef readonly captures(none) %1, i64 %2) #9 {
  %4 = load i32, ptr %0, align 8
  %5 = load i32, ptr %1, align 8
  %.not = icmp eq i32 %4, %5
  br i1 %.not, label %9, label %6

6:                                                ; preds = %3
  %7 = icmp sgt i32 %4, %5
  %8 = select i1 %7, i32 1, i32 -1
  br label %18

9:                                                ; preds = %3
  %10 = getelementptr inbounds nuw i8, ptr %0, i64 8
  %11 = load i64, ptr %10, align 8
  %12 = inttoptr i64 %11 to ptr
  %13 = getelementptr inbounds nuw i8, ptr %1, i64 8
  %14 = load i64, ptr %13, align 8
  %15 = inttoptr i64 %14 to ptr
  %16 = sext i32 %4 to i64
  %17 = tail call i32 @memcmp(ptr noundef %12, ptr noundef %15, i64 noundef %16) #13
  br label %18

18:                                               ; preds = %9, %6
  %.0 = phi i32 [ %8, %6 ], [ %17, %9 ]
  ret i32 %.0
}